; Function Attrs: mustprogress uwtable
define void @_ZN6google8protobuf10TextFormat23PrintFieldValueToStringERKNS0_7MessageEPKNS0_15FieldDescriptorEiPNSt7__cxx1112basic_stringIcSt11char_traitsIcESaIcEEE(ptr noundef nonnull align 8 dereferenceable(16) %message, ptr noundef %field, i32 noundef %index, ptr noundef %output) local_unnamed_addr #4 align 2 personality ptr @__gxx_personality_v0 {
entry:
  %ref.tmp = alloca %"class.google::protobuf::TextFormat::Printer", align 8
  call void @_ZN6google8protobuf10TextFormat7PrinterC1Ev(ptr noundef nonnull align 8 dereferenceable(112) %ref.tmp)
  invoke void @_ZNK6google8protobuf10TextFormat7Printer23PrintFieldValueToStringERKNS0_7MessageEPKNS0_15FieldDescriptorEiPNSt7__cxx1112basic_stringIcSt11char_traitsIcESaIcEEE(ptr noundef nonnull align 8 dereferenceable(112) %ref.tmp, ptr noundef nonnull align 8 dereferenceable(16) %message, ptr noundef %field, i32 noundef %index, ptr noundef %output)
          to label %invoke.cont unwind label %lpad

invoke.cont:                                      ; preds = %entry
  %custom_message_printers_.i = getelementptr inbounds i8, ptr %ref.tmp, i64 72
  %capacity_.i.i.i.i.i.i = getelementptr inbounds i8, ptr %ref.tmp, i64 88
  %0 = load i64, ptr %capacity_.i.i.i.i.i.i, align 8
  %tobool.not.i.i.i.i = icmp eq i64 %0, 0
  br i1 %tobool.not.i.i.i.i, label %_ZN4absl12lts_2023080213flat_hash_mapIPKN6google8protobuf10DescriptorESt10unique_ptrIKNS3_10TextFormat14MessagePrinterESt14default_deleteISA_EENS0_18container_internal6HashEqIS6_vE4HashENSG_2EqESaISt4pairIKS6_SD_EEED2Ev.exit.i, label %if.end.i.i.i.i

if.end.i.i.i.i:                                   ; preds = %invoke.cont
  %1 = load ptr, ptr %custom_message_printers_.i, align 8
  %slots_.i.i.i.i.i.i.i = getelementptr inbounds i8, ptr %ref.tmp, i64 80
  %2 = load ptr, ptr %slots_.i.i.i.i.i.i.i, align 8
  br label %for.body.i.i.i.i.i

for.body.i.i.i.i.i:                               ; preds = %for.inc.i.i.i.i.i, %if.end.i.i.i.i
  %i.05.i.i.i.i.i = phi i64 [ %inc.i.i.i.i.i, %for.inc.i.i.i.i.i ], [ 0, %if.end.i.i.i.i ]
  %arrayidx.i.i.i.i.i = getelementptr inbounds i8, ptr %1, i64 %i.05.i.i.i.i.i
  %3 = load i8, ptr %arrayidx.i.i.i.i.i, align 1
  %cmp.i.i.i.i.i.i = icmp sgt i8 %3, -1
  br i1 %cmp.i.i.i.i.i.i, label %if.then.i.i.i.i.i, label %for.inc.i.i.i.i.i

if.then.i.i.i.i.i:                                ; preds = %for.body.i.i.i.i.i
  %second.i.i.i.i.i.i.i.i.i.i.i = getelementptr inbounds %"union.absl::lts_20230802::container_internal::map_slot_type.218", ptr %2, i64 %i.05.i.i.i.i.i, i32 0, i32 1
  %4 = load ptr, ptr %second.i.i.i.i.i.i.i.i.i.i.i, align 8
  %cmp.not.i.i.i.i.i.i.i.i.i.i.i.i = icmp eq ptr %4, null
  br i1 %cmp.not.i.i.i.i.i.i.i.i.i.i.i.i, label %_ZN4absl12lts_2023080218container_internal20common_policy_traitsINS1_17FlatHashMapPolicyIPKN6google8protobuf10DescriptorESt10unique_ptrIKNS5_10TextFormat14MessagePrinterESt14default_deleteISC_EEEEvE7destroyISaISt4pairIKS8_SF_EEEEvPT_PNS1_13map_slot_typeIS8_SF_EE.exit.i.i.i.i.i, label %_ZNKSt14default_deleteIKN6google8protobuf10TextFormat14MessagePrinterEEclEPS4_.exit.i.i.i.i.i.i.i.i.i.i.i.i

_ZNKSt14default_deleteIKN6google8protobuf10TextFormat14MessagePrinterEEclEPS4_.exit.i.i.i.i.i.i.i.i.i.i.i.i: ; preds = %if.then.i.i.i.i.i
  %vtable.i.i.i.i.i.i.i.i.i.i.i.i.i = load ptr, ptr %4, align 8
  %vfn.i.i.i.i.i.i.i.i.i.i.i.i.i = getelementptr inbounds i8, ptr %vtable.i.i.i.i.i.i.i.i.i.i.i.i.i, i64 8
  %5 = load ptr, ptr %vfn.i.i.i.i.i.i.i.i.i.i.i.i.i, align 8
  call void %5(ptr noundef nonnull align 8 dereferenceable(8) %4) #34
  br label %_ZN4absl12lts_2023080218container_internal20common_policy_traitsINS1_17FlatHashMapPolicyIPKN6google8protobuf10DescriptorESt10unique_ptrIKNS5_10TextFormat14MessagePrinterESt14default_deleteISC_EEEEvE7destroyISaISt4pairIKS8_SF_EEEEvPT_PNS1_13map_slot_typeIS8_SF_EE.exit.i.i.i.i.i

_ZN4absl12lts_2023080218container_internal20common_policy_traitsINS1_17FlatHashMapPolicyIPKN6google8protobuf10DescriptorESt10unique_ptrIKNS5_10TextFormat14MessagePrinterESt14default_deleteISC_EEEEvE7destroyISaISt4pairIKS8_SF_EEEEvPT_PNS1_13map_slot_typeIS8_SF_EE.exit.i.i.i.i.i: ; preds = %_ZNKSt14default_deleteIKN6google8protobuf10TextFormat14MessagePrinterEEclEPS4_.exit.i.i.i.i.i.i.i.i.i.i.i.i, %if.then.i.i.i.i.i
  store ptr null, ptr %second.i.i.i.i.i.i.i.i.i.i.i, align 8
  br label %for.inc.i.i.i.i.i

for.inc.i.i.i.i.i:                                ; preds = %_ZN4absl12lts_2023080218container_internal20common_policy_traitsINS1_17FlatHashMapPolicyIPKN6google8protobuf10DescriptorESt10unique_ptrIKNS5_10TextFormat14MessagePrinterESt14default_deleteISC_EEEEvE7destroyISaISt4pairIKS8_SF_EEEEvPT_PNS1_13map_slot_typeIS8_SF_EE.exit.i.i.i.i.i, %for.body.i.i.i.i.i
  %inc.i.i.i.i.i = add nuw i64 %i.05.i.i.i.i.i, 1
  %cmp.not.i.i.i.i.i = icmp eq i64 %inc.i.i.i.i.i, %0
  br i1 %cmp.not.i.i.i.i.i, label %invoke.cont13.i.i.i.i, label %for.body.i.i.i.i.i, !llvm.loop !4

invoke.cont13.i.i.i.i:                            ; preds = %for.inc.i.i.i.i.i
  %6 = load ptr, ptr %custom_message_printers_.i, align 8
  %add.ptr.i.i.i.i.i = getelementptr inbounds i8, ptr %6, i64 -8
  call void @_ZdlPv(ptr noundef nonnull %add.ptr.i.i.i.i.i) #35
  br label %_ZN4absl12lts_2023080213flat_hash_mapIPKN6google8protobuf10DescriptorESt10unique_ptrIKNS3_10TextFormat14MessagePrinterESt14default_deleteISA_EENS0_18container_internal6HashEqIS6_vE4HashENSG_2EqESaISt4pairIKS6_SD_EEED2Ev.exit.i

_ZN4absl12lts_2023080213flat_hash_mapIPKN6google8protobuf10DescriptorESt10unique_ptrIKNS3_10TextFormat14MessagePrinterESt14default_deleteISA_EENS0_18container_internal6HashEqIS6_vE4HashENSG_2EqESaISt4pairIKS6_SD_EEED2Ev.exit.i: ; preds = %invoke.cont13.i.i.i.i, %invoke.cont
  %custom_printers_.i = getelementptr inbounds i8, ptr %ref.tmp, i64 40
  %capacity_.i.i.i.i.i1.i = getelementptr inbounds i8, ptr %ref.tmp, i64 56
  %7 = load i64, ptr %capacity_.i.i.i.i.i1.i, align 8
  %tobool.not.i.i.i2.i = icmp eq i64 %7, 0
  br i1 %tobool.not.i.i.i2.i, label %_ZN4absl12lts_2023080213flat_hash_mapIPKN6google8protobuf15FieldDescriptorESt10unique_ptrIKNS3_10TextFormat21FastFieldValuePrinterESt14default_deleteISA_EENS0_18container_internal6HashEqIS6_vE4HashENSG_2EqESaISt4pairIKS6_SD_EEED2Ev.exit.i, label %if.end.i.i.i3.i

if.end.i.i.i3.i:                                  ; preds = %_ZN4absl12lts_2023080213flat_hash_mapIPKN6google8protobuf10DescriptorESt10unique_ptrIKNS3_10TextFormat14MessagePrinterESt14default_deleteISA_EENS0_18container_internal6HashEqIS6_vE4HashENSG_2EqESaISt4pairIKS6_SD_EEED2Ev.exit.i
  %8 = load ptr, ptr %custom_printers_.i, align 8
  %slots_.i.i.i.i.i.i4.i = getelementptr inbounds i8, ptr %ref.tmp, i64 48
  %9 = load ptr, ptr %slots_.i.i.i.i.i.i4.i, align 8
  br label %for.body.i.i.i.i5.i

for.body.i.i.i.i5.i:                              ; preds = %for.inc.i.i.i.i9.i, %if.end.i.i.i3.i
  %i.05.i.i.i.i6.i = phi i64 [ %inc.i.i.i.i10.i, %for.inc.i.i.i.i9.i ], [ 0, %if.end.i.i.i3.i ]
  %arrayidx.i.i.i.i7.i = getelementptr inbounds i8, ptr %8, i64 %i.05.i.i.i.i6.i
  %10 = load i8, ptr %arrayidx.i.i.i.i7.i, align 1
  %cmp.i.i.i.i.i8.i = icmp sgt i8 %10, -1
  br i1 %cmp.i.i.i.i.i8.i, label %if.then.i.i.i.i14.i, label %for.inc.i.i.i.i9.i

if.then.i.i.i.i14.i:                              ; preds = %for.body.i.i.i.i5.i
  %second.i.i.i.i.i.i.i.i.i.i15.i = getelementptr inbounds %"union.absl::lts_20230802::container_internal::map_slot_type.223", ptr %9, i64 %i.05.i.i.i.i6.i, i32 0, i32 1
  %11 = load ptr, ptr %second.i.i.i.i.i.i.i.i.i.i15.i, align 8
  %cmp.not.i.i.i.i.i.i.i.i.i.i.i16.i = icmp eq ptr %11, null
  br i1 %cmp.not.i.i.i.i.i.i.i.i.i.i.i16.i, label %_ZN4absl12lts_2023080218container_internal20common_policy_traitsINS1_17FlatHashMapPolicyIPKN6google8protobuf15FieldDescriptorESt10unique_ptrIKNS5_10TextFormat21FastFieldValuePrinterESt14default_deleteISC_EEEEvE7destroyISaISt4pairIKS8_SF_EEEEvPT_PNS1_13map_slot_typeIS8_SF_EE.exit.i.i.i.i.i, label %_ZNKSt14default_deleteIKN6google8protobuf10TextFormat21FastFieldValuePrinterEEclEPS4_.exit.i.i.i.i.i.i.i.i.i.i.i.i

_ZNKSt14default_deleteIKN6google8protobuf10TextFormat21FastFieldValuePrinterEEclEPS4_.exit.i.i.i.i.i.i.i.i.i.i.i.i: ; preds = %if.then.i.i.i.i14.i
  %vtable.i.i.i.i.i.i.i.i.i.i.i.i17.i = load ptr, ptr %11, align 8
  %vfn.i.i.i.i.i.i.i.i.i.i.i.i18.i = getelementptr inbounds i8, ptr %vtable.i.i.i.i.i.i.i.i.i.i.i.i17.i, i64 8
  %12 = load ptr, ptr %vfn.i.i.i.i.i.i.i.i.i.i.i.i18.i, align 8
  call void %12(ptr noundef nonnull align 8 dereferenceable(8) %11) #34
  br label %_ZN4absl12lts_2023080218container_internal20common_policy_traitsINS1_17FlatHashMapPolicyIPKN6google8protobuf15FieldDescriptorESt10unique_ptrIKNS5_10TextFormat21FastFieldValuePrinterESt14default_deleteISC_EEEEvE7destroyISaISt4pairIKS8_SF_EEEEvPT_PNS1_13map_slot_typeIS8_SF_EE.exit.i.i.i.i.i

_ZN4absl12lts_2023080218container_internal20common_policy_traitsINS1_17FlatHashMapPolicyIPKN6google8protobuf15FieldDescriptorESt10unique_ptrIKNS5_10TextFormat21FastFieldValuePrinterESt14default_deleteISC_EEEEvE7destroyISaISt4pairIKS8_SF_EEEEvPT_PNS1_13map_slot_typeIS8_SF_EE.exit.i.i.i.i.i: ; preds = %_ZNKSt14default_deleteIKN6google8protobuf10TextFormat21FastFieldValuePrinterEEclEPS4_.exit.i.i.i.i.i.i.i.i.i.i.i.i, %if.then.i.i.i.i14.i
  store ptr null, ptr %second.i.i.i.i.i.i.i.i.i.i15.i, align 8
  br label %for.inc.i.i.i.i9.i

for.inc.i.i.i.i9.i:                               ; preds = %_ZN4absl12lts_2023080218container_internal20common_policy_traitsINS1_17FlatHashMapPolicyIPKN6google8protobuf15FieldDescriptorESt10unique_ptrIKNS5_10TextFormat21FastFieldValuePrinterESt14default_deleteISC_EEEEvE7destroyISaISt4pairIKS8_SF_EEEEvPT_PNS1_13map_slot_typeIS8_SF_EE.exit.i.i.i.i.i, %for.body.i.i.i.i5.i
  %inc.i.i.i.i10.i = add nuw i64 %i.05.i.i.i.i6.i, 1
  %cmp.not.i.i.i.i11.i = icmp eq i64 %inc.i.i.i.i10.i, %7
  br i1 %cmp.not.i.i.i.i11.i, label %invoke.cont13.i.i.i12.i, label %for.body.i.i.i.i5.i, !llvm.loop !6

invoke.cont13.i.i.i12.i:                          ; preds = %for.inc.i.i.i.i9.i
  %13 = load ptr, ptr %custom_printers_.i, align 8
  %add.ptr.i.i.i.i13.i = getelementptr inbounds i8, ptr %13, i64 -8
  call void @_ZdlPv(ptr noundef nonnull %add.ptr.i.i.i.i13.i) #35
  br label %_ZN4absl12lts_2023080213flat_hash_mapIPKN6google8protobuf15FieldDescriptorESt10unique_ptrIKNS3_10TextFormat21FastFieldValuePrinterESt14default_deleteISA_EENS0_18container_internal6HashEqIS6_vE4HashENSG_2EqESaISt4pairIKS6_SD_EEED2Ev.exit.i

_ZN4absl12lts_2023080213flat_hash_mapIPKN6google8protobuf15FieldDescriptorESt10unique_ptrIKNS3_10TextFormat21FastFieldValuePrinterESt14default_deleteISA_EENS0_18container_internal6HashEqIS6_vE4HashENSG_2EqESaISt4pairIKS6_SD_EEED2Ev.exit.i: ; preds = %invoke.cont13.i.i.i12.i, %_ZN4absl12lts_2023080213flat_hash_mapIPKN6google8protobuf10DescriptorESt10unique_ptrIKNS3_10TextFormat14MessagePrinterESt14default_deleteISA_EENS0_18container_internal6HashEqIS6_vE4HashENSG_2EqESaISt4pairIKS6_SD_EEED2Ev.exit.i
  %default_field_value_printer_.i = getelementptr inbounds i8, ptr %ref.tmp, i64 32
  %14 = load ptr, ptr %default_field_value_printer_.i, align 8
  %cmp.not.i.i = icmp eq ptr %14, null
  br i1 %cmp.not.i.i, label %_ZN6google8protobuf10TextFormat7PrinterD2Ev.exit, label %_ZNKSt14default_deleteIKN6google8protobuf10TextFormat21FastFieldValuePrinterEEclEPS4_.exit.i.i

_ZNKSt14default_deleteIKN6google8protobuf10TextFormat21FastFieldValuePrinterEEclEPS4_.exit.i.i: ; preds = %_ZN4absl12lts_2023080213flat_hash_mapIPKN6google8protobuf15FieldDescriptorESt10unique_ptrIKNS3_10TextFormat21FastFieldValuePrinterESt14default_deleteISA_EENS0_18container_internal6HashEqIS6_vE4HashENSG_2EqESaISt4pairIKS6_SD_EEED2Ev.exit.i
  %vtable.i.i.i = load ptr, ptr %14, align 8
  %vfn.i.i.i = getelementptr inbounds i8, ptr %vtable.i.i.i, i64 8
  %15 = load ptr, ptr %vfn.i.i.i, align 8
  call void %15(ptr noundef nonnull align 8 dereferenceable(8) %14) #34
  br label %_ZN6google8protobuf10TextFormat7PrinterD2Ev.exit

_ZN6google8protobuf10TextFormat7PrinterD2Ev.exit: ; preds = %_ZN4absl12lts_2023080213flat_hash_mapIPKN6google8protobuf15FieldDescriptorESt10unique_ptrIKNS3_10TextFormat21FastFieldValuePrinterESt14default_deleteISA_EENS0_18container_internal6HashEqIS6_vE4HashENSG_2EqESaISt4pairIKS6_SD_EEED2Ev.exit.i, %_ZNKSt14default_deleteIKN6google8protobuf10TextFormat21FastFieldValuePrinterEEclEPS4_.exit.i.i
  ret void

lpad:                                             ; preds = %entry
  %16 = landingpad { ptr, i32 }
          cleanup
  call void @_ZN6google8protobuf10TextFormat7PrinterD2Ev(ptr noundef nonnull align 8 dereferenceable(112) %ref.tmp) #34
  resume { ptr, i32 } %16
}